target datalayout = "e-m:e-p270:32:32-p271:32:32-p272:64:64-i64:64-i128:128-f80:128-n8:16:32:64-S128"
target triple = "x86_64-pc-linux-gnu"

%struct._generic_N_Vector = type { ptr, ptr, ptr }
%struct._N_VectorContent_Serial = type { i64, i32, ptr }

; Function Attrs: nounwind uwtable
define void @N_VDestroy_Serial(ptr noundef %0) #0 {
  %2 = alloca ptr, align 8
  store ptr %0, ptr %2, align 8, !tbaa !10
  %3 = load ptr, ptr %2, align 8, !tbaa !10
  %4 = icmp eq ptr %3, null
  br i1 %4, label %5, label %6

5:                                                ; preds = %1
  br label %54

6:                                                ; preds = %1
  %7 = load ptr, ptr %2, align 8, !tbaa !10
  %8 = getelementptr inbounds nuw %struct._generic_N_Vector, ptr %7, i32 0, i32 0
  %9 = load ptr, ptr %8, align 8, !tbaa !61
  %10 = icmp ne ptr %9, null
  br i1 %10, label %11, label %41

11:                                               ; preds = %6
  %12 = load ptr, ptr %2, align 8, !tbaa !10
  %13 = getelementptr inbounds nuw %struct._generic_N_Vector, ptr %12, i32 0, i32 0
  %14 = load ptr, ptr %13, align 8, !tbaa !61
  %15 = getelementptr inbounds nuw %struct._N_VectorContent_Serial, ptr %14, i32 0, i32 1
  %16 = load i32, ptr %15, align 8, !tbaa !66
  %17 = icmp ne i32 %16, 0
  br i1 %17, label %18, label %35

18:                                               ; preds = %11
  %19 = load ptr, ptr %2, align 8, !tbaa !10
  %20 = getelementptr inbounds nuw %struct._generic_N_Vector, ptr %19, i32 0, i32 0
  %21 = load ptr, ptr %20, align 8, !tbaa !61
  %22 = getelementptr inbounds nuw %struct._N_VectorContent_Serial, ptr %21, i32 0, i32 2
  %23 = load ptr, ptr %22, align 8, !tbaa !67
  %24 = icmp ne ptr %23, null
  br i1 %24, label %25, label %35

25:                                               ; preds = %18
  %26 = load ptr, ptr %2, align 8, !tbaa !10
  %27 = getelementptr inbounds nuw %struct._generic_N_Vector, ptr %26, i32 0, i32 0
  %28 = load ptr, ptr %27, align 8, !tbaa !61
  %29 = getelementptr inbounds nuw %struct._N_VectorContent_Serial, ptr %28, i32 0, i32 2
  %30 = load ptr, ptr %29, align 8, !tbaa !67
  call void @free(ptr noundef %30) #6
  %31 = load ptr, ptr %2, align 8, !tbaa !10
  %32 = getelementptr inbounds nuw %struct._generic_N_Vector, ptr %31, i32 0, i32 0
  %33 = load ptr, ptr %32, align 8, !tbaa !61
  %34 = getelementptr inbounds nuw %struct._N_VectorContent_Serial, ptr %33, i32 0, i32 2
  store ptr null, ptr %34, align 8, !tbaa !67
  br label %35

35:                                               ; preds = %25, %18, %11
  %36 = load ptr, ptr %2, align 8, !tbaa !10
  %37 = getelementptr inbounds nuw %struct._generic_N_Vector, ptr %36, i32 0, i32 0
  %38 = load ptr, ptr %37, align 8, !tbaa !61
  call void @free(ptr noundef %38) #6
  %39 = load ptr, ptr %2, align 8, !tbaa !10
  %40 = getelementptr inbounds nuw %struct._generic_N_Vector, ptr %39, i32 0, i32 0
  store ptr null, ptr %40, align 8, !tbaa !61
  br label %41

41:                                               ; preds = %35, %6
  %42 = load ptr, ptr %2, align 8, !tbaa !10
  %43 = getelementptr inbounds nuw %struct._generic_N_Vector, ptr %42, i32 0, i32 1
  %44 = load ptr, ptr %43, align 8, !tbaa !12
  %45 = icmp ne ptr %44, null
  br i1 %45, label %46, label %52

46:                                               ; preds = %41
  %47 = load ptr, ptr %2, align 8, !tbaa !10
  %48 = getelementptr inbounds nuw %struct._generic_N_Vector, ptr %47, i32 0, i32 1
  %49 = load ptr, ptr %48, align 8, !tbaa !12
  call void @free(ptr noundef %49) #6
  %50 = load ptr, ptr %2, align 8, !tbaa !10
  %51 = getelementptr inbounds nuw %struct._generic_N_Vector, ptr %50, i32 0, i32 1
  store ptr null, ptr %51, align 8, !tbaa !12
  br label %52

52:                                               ; preds = %46, %41
  %53 = load ptr, ptr %2, align 8, !tbaa !10
  call void @free(ptr noundef %53) #6
  store ptr null, ptr %2, align 8, !tbaa !10
  br label %54

54:                                               ; preds = %52, %5
  ret void
}