; Function Attrs: mustprogress nounwind willreturn uwtable
define void @N_VDestroy_Serial(ptr noundef captures(address_is_null) %0) #3 {
  %2 = icmp eq ptr %0, null
  br i1 %2, label %21, label %3

3:                                                ; preds = %1
  %4 = load ptr, ptr %0, align 8, !tbaa !54
  %.not = icmp eq ptr %4, null
  br i1 %.not, label %16, label %5

5:                                                ; preds = %3
  %6 = getelementptr inbounds nuw i8, ptr %4, i64 8
  %7 = load i32, ptr %6, align 8, !tbaa !60
  %.not15 = icmp eq i32 %7, 0
  br i1 %.not15, label %14, label %8

8:                                                ; preds = %5
  %9 = getelementptr inbounds nuw i8, ptr %4, i64 16
  %10 = load ptr, ptr %9, align 8, !tbaa !61
  %.not16 = icmp eq ptr %10, null
  br i1 %.not16, label %14, label %11

11:                                               ; preds = %8
  tail call void @free(ptr noundef nonnull %10) #20
  %12 = load ptr, ptr %0, align 8, !tbaa !54
  %13 = getelementptr inbounds nuw i8, ptr %12, i64 16
  store ptr null, ptr %13, align 8, !tbaa !61
  br label %14

14:                                               ; preds = %11, %8, %5
  %15 = phi ptr [ %12, %11 ], [ %4, %8 ], [ %4, %5 ]
  tail call void @free(ptr noundef nonnull %15) #20
  store ptr null, ptr %0, align 8, !tbaa !54
  br label %16

16:                                               ; preds = %14, %3
  %17 = getelementptr inbounds nuw i8, ptr %0, i64 8
  %18 = load ptr, ptr %17, align 8, !tbaa !3
  %.not17 = icmp eq ptr %18, null
  br i1 %.not17, label %20, label %19

19:                                               ; preds = %16
  tail call void @free(ptr noundef nonnull %18) #20
  br label %20

20:                                               ; preds = %19, %16
  tail call void @free(ptr noundef nonnull %0) #20
  br label %21

21:                                               ; preds = %1, %20
  ret void
}